; Function Attrs: inlinehint mustprogress nounwind uwtable
define internal void @_ZN9grpc_core12_GLOBAL__N_118OutlierDetectionLb17SubchannelWrapper14WatcherWrapperD0Ev(ptr noundef nonnull align 8 dereferenceable(56) %0) unnamed_addr #14 align 2 personality ptr @__gxx_personality_v0 {
  %2 = getelementptr inbounds nuw i8, ptr %0, i64 40
  %3 = load i64, ptr %2, align 8, !tbaa !153
  %4 = and i64 %3, 1
  %.not.i.i.i = icmp eq i64 %4, 0
  br i1 %.not.i.i.i, label %5, label %_ZN4absl12lts_202407226StatusD2Ev.exit.i

5:                                                ; preds = %1
  %6 = inttoptr i64 %3 to ptr
  invoke void @_ZNK4absl12lts_2024072215status_internal9StatusRep5UnrefEv(ptr noundef nonnull align 8 dereferenceable(48) %6)
          to label %_ZN4absl12lts_202407226StatusD2Ev.exit.i unwind label %7

7:                                                ; preds = %5
  %8 = landingpad { ptr, i32 }
          catch ptr null
  %9 = extractvalue { ptr, i32 } %8, 0
  tail call void @__clang_call_terminate(ptr %9) #38
  unreachable

_ZN4absl12lts_202407226StatusD2Ev.exit.i:         ; preds = %5, %1
  %10 = getelementptr inbounds nuw i8, ptr %0, i64 24
  %11 = load ptr, ptr %10, align 8, !tbaa !93
  %.not.i.i1.i = icmp eq ptr %11, null
  br i1 %.not.i.i1.i, label %_ZNSt12__shared_ptrIN9grpc_core19SubchannelInterface33ConnectivityStateWatcherInterfaceELN9__gnu_cxx12_Lock_policyE2EED2Ev.exit.i, label %12

12:                                               ; preds = %_ZN4absl12lts_202407226StatusD2Ev.exit.i
  %13 = getelementptr inbounds nuw i8, ptr %11, i64 8
  %14 = load atomic i64, ptr %13 acquire, align 8
  %15 = icmp eq i64 %14, 4294967297
  %16 = trunc i64 %14 to i32
  br i1 %15, label %17, label %25

17:                                               ; preds = %12
  store i32 0, ptr %13, align 8, !tbaa !96
  %18 = getelementptr inbounds nuw i8, ptr %11, i64 12
  store i32 0, ptr %18, align 4, !tbaa !98
  %19 = load ptr, ptr %11, align 8, !tbaa !4
  %20 = getelementptr inbounds nuw i8, ptr %19, i64 16
  %21 = load ptr, ptr %20, align 8
  tail call void %21(ptr noundef nonnull align 8 dereferenceable(16) %11) #36
  %22 = load ptr, ptr %11, align 8, !tbaa !4
  %23 = getelementptr inbounds nuw i8, ptr %22, i64 24
  %24 = load ptr, ptr %23, align 8
  tail call void %24(ptr noundef nonnull align 8 dereferenceable(16) %11) #36
  br label %_ZNSt12__shared_ptrIN9grpc_core19SubchannelInterface33ConnectivityStateWatcherInterfaceELN9__gnu_cxx12_Lock_policyE2EED2Ev.exit.i

25:                                               ; preds = %12
  %26 = load i8, ptr @__libc_single_threaded, align 1, !tbaa !7
  %.not.i.i.i.i = icmp eq i8 %26, 0
  br i1 %.not.i.i.i.i, label %29, label %27

27:                                               ; preds = %25
  %28 = add nsw i32 %16, -1
  store i32 %28, ptr %13, align 4, !tbaa !75
  br label %_ZN9__gnu_cxx27__exchange_and_add_dispatchEPii.exit.i.i.i.i

29:                                               ; preds = %25
  %30 = atomicrmw volatile add ptr %13, i32 -1 acq_rel, align 4
  br label %_ZN9__gnu_cxx27__exchange_and_add_dispatchEPii.exit.i.i.i.i

_ZN9__gnu_cxx27__exchange_and_add_dispatchEPii.exit.i.i.i.i: ; preds = %29, %27
  %.0.i.i.i.i.i = phi i32 [ %16, %27 ], [ %30, %29 ]
  %31 = icmp eq i32 %.0.i.i.i.i.i, 1
  br i1 %31, label %32, label %_ZNSt12__shared_ptrIN9grpc_core19SubchannelInterface33ConnectivityStateWatcherInterfaceELN9__gnu_cxx12_Lock_policyE2EED2Ev.exit.i, !prof !99

32:                                               ; preds = %_ZN9__gnu_cxx27__exchange_and_add_dispatchEPii.exit.i.i.i.i
  tail call void @_ZNSt16_Sp_counted_baseILN9__gnu_cxx12_Lock_policyE2EE24_M_release_last_use_coldEv(ptr noundef nonnull align 8 dereferenceable(16) %11) #36
  br label %_ZNSt12__shared_ptrIN9grpc_core19SubchannelInterface33ConnectivityStateWatcherInterfaceELN9__gnu_cxx12_Lock_policyE2EED2Ev.exit.i

_ZNSt12__shared_ptrIN9grpc_core19SubchannelInterface33ConnectivityStateWatcherInterfaceELN9__gnu_cxx12_Lock_policyE2EED2Ev.exit.i: ; preds = %32, %_ZN9__gnu_cxx27__exchange_and_add_dispatchEPii.exit.i.i.i.i, %17, %_ZN4absl12lts_202407226StatusD2Ev.exit.i
  %33 = getelementptr inbounds nuw i8, ptr %0, i64 8
  %.val.i = load ptr, ptr %33, align 8, !tbaa !374
  %.not.i.i = icmp eq ptr %.val.i, null
  br i1 %.not.i.i, label %_ZN9grpc_core12_GLOBAL__N_118OutlierDetectionLb17SubchannelWrapper14WatcherWrapperD2Ev.exit, label %34

34:                                               ; preds = %_ZNSt12__shared_ptrIN9grpc_core19SubchannelInterface33ConnectivityStateWatcherInterfaceELN9__gnu_cxx12_Lock_policyE2EED2Ev.exit.i
  %35 = getelementptr inbounds nuw i8, ptr %.val.i, i64 8
  %36 = atomicrmw sub ptr %35, i64 1 acq_rel, align 8
  %37 = icmp eq i64 %36, 1
  br i1 %37, label %38, label %_ZN9grpc_core12_GLOBAL__N_118OutlierDetectionLb17SubchannelWrapper14WatcherWrapperD2Ev.exit, !prof !99

38:                                               ; preds = %34
  %39 = load ptr, ptr %.val.i, align 8, !tbaa !4
  %40 = getelementptr inbounds nuw i8, ptr %39, i64 8
  %41 = load ptr, ptr %40, align 8
  tail call void %41(ptr noundef nonnull align 8 dereferenceable(16) %.val.i) #36
  br label %_ZN9grpc_core12_GLOBAL__N_118OutlierDetectionLb17SubchannelWrapper14WatcherWrapperD2Ev.exit

_ZN9grpc_core12_GLOBAL__N_118OutlierDetectionLb17SubchannelWrapper14WatcherWrapperD2Ev.exit: ; preds = %_ZNSt12__shared_ptrIN9grpc_core19SubchannelInterface33ConnectivityStateWatcherInterfaceELN9__gnu_cxx12_Lock_policyE2EED2Ev.exit.i, %34, %38
  tail call void @_ZdlPvm(ptr noundef nonnull %0, i64 noundef 56) #40
  ret void
}